(dp1
I1
(dp2
I40
I2
sI10
I3
sI11
I4
sI44
I5
sI16
I6
sI50
I7
sI27
I9
sI28
I10
sI42
I8
sI30
I11
ssI2
(dp3
I38
I2
sI7
I3
sI10
I4
sI13
I5
sI14
I6
sI16
I7
sI49
I8
sI21
I9
sI22
I10
sI42
I11
ssI3
(dp4
I4
I2
sI5
I3
sI38
I4
sI8
I5
sI9
I6
sI45
I7
sI48
I8
sI19
I9
sI6
I11
sI29
I10
ssI4
(dp5
I33
I2
sI3
I7
sI36
I4
sI37
I5
sI41
I6
sI46
I8
sI35
I3
sI22
I9
sI25
I10
sI59
I11
ssI5
(dp6
I32
I11
sI3
I2
sI37
I3
sI6
I4
sI11
I5
sI13
I6
sI46
I7
sI15
I8
sI24
I9
sI26
I10
ssI6
(dp7
I3
I2
sI5
I3
sI38
I4
sI41
I5
sI42
I6
sI44
I7
sI20
I8
sI24
I9
sI26
I10
sI31
I11
ssI7
(dp8
I32
I11
sI33
I2
sI2
I3
sI35
I4
sI38
I5
sI34
I6
sI14
I7
sI15
I8
sI17
I9
sI23
I10
ssI8
(dp9
I19
I9
sI32
I11
sI3
I2
sI39
I3
sI40
I4
sI41
I5
sI13
I6
sI48
I8
sI35
I7
sI29
I10
ssI9
(dp10
I3
I2
sI41
I3
sI43
I4
sI45
I5
sI46
I6
sI47
I7
sI11
I11
sI19
I8
sI26
I9
sI28
I10
ssI10
(dp11
I1
I2
sI2
I3
sI42
I4
sI46
I6
sI47
I7
sI17
I8
sI50
I9
sI24
I10
sI56
I5
sI31
I11
ssI11
(dp12
I1
I2
sI36
I3
sI5
I4
sI39
I5
sI9
I6
sI47
I7
sI49
I8
sI20
I9
sI25
I10
sI37
I11
ssI12
(dp13
I32
I11
sI34
I2
sI40
I3
sI45
I4
sI48
I5
sI17
I6
sI23
I7
sI27
I8
sI29
I9
sI31
I10
ssI13
(dp14
I2
I2
sI5
I3
sI39
I4
sI8
I5
sI41
I6
sI46
I7
sI18
I8
sI20
I9
sI54
I10
sI27
I11
ssI14
(dp15
I33
I2
sI2
I3
sI36
I4
sI7
I5
sI17
I6
sI22
I7
sI24
I8
sI27
I9
sI28
I10
sI31
I11
ssI15
(dp16
I16
I10
sI5
I2
sI7
I3
sI41
I4
sI44
I5
sI46
I6
sI48
I7
sI20
I8
sI26
I9
sI31
I11
ssI16
(dp17
I32
I11
sI33
I2
sI2
I3
sI37
I4
sI38
I5
sI1
I6
sI15
I7
sI50
I8
sI25
I9
sI28
I10
ssI17
(dp18
I35
I2
sI38
I3
sI7
I4
sI10
I5
sI12
I6
sI14
I7
sI51
I8
sI20
I9
sI26
I10
sI29
I11
ssI18
(dp19
I35
I2
sI40
I3
sI44
I4
sI13
I5
sI49
I6
sI50
I7
sI52
I8
sI23
I9
sI29
I10
sI30
I11
ssI19
(dp20
I3
I2
sI8
I3
sI9
I4
sI43
I5
sI47
I6
sI49
I7
sI21
I8
sI23
I9
sI24
I10
sI26
I11
ssI20
(dp21
I37
I3
sI6
I4
sI60
I11
sI11
I5
sI13
I7
sI47
I6
sI17
I9
sI22
I10
sI15
I8
sI28
I2
ssI21
(dp22
I32
I11
sI2
I2
sI36
I3
sI37
I4
sI38
I5
sI40
I6
sI42
I7
sI50
I8
sI19
I9
sI23
I10
ssI22
(dp23
I34
I2
sI35
I3
sI4
I4
sI2
I5
sI14
I6
sI48
I7
sI49
I8
sI20
I9
sI23
I10
sI25
I11
ssI23
(dp24
I35
I2
sI7
I3
sI41
I4
sI12
I5
sI48
I6
sI18
I7
sI19
I8
sI21
I9
sI22
I10
sI28
I11
ssI24
(dp25
I32
I11
sI5
I2
sI6
I3
sI40
I4
sI10
I5
sI43
I6
sI14
I7
sI19
I8
sI25
I9
sI28
I10
ssI25
(dp26
I16
I10
sI4
I2
sI39
I3
sI40
I4
sI11
I5
sI47
I6
sI48
I7
sI22
I8
sI24
I9
sI29
I11
ssI26
(dp27
I36
I2
sI5
I3
sI6
I4
sI9
I5
sI42
I6
sI15
I7
sI17
I8
sI19
I9
sI29
I10
sI30
I11
ssI27
(dp28
I1
I2
sI34
I3
sI35
I4
sI41
I5
sI12
I7
sI13
I6
sI14
I9
sI45
I8
sI29
I10
sI30
I11
ssI28
(dp29
I1
I2
sI16
I11
sI9
I4
sI42
I5
sI14
I6
sI48
I7
sI20
I8
sI46
I3
sI23
I9
sI24
I10
ssI29
(dp30
I34
I2
sI3
I3
sI40
I4
sI12
I5
sI17
I6
sI18
I7
sI8
I10
sI25
I9
sI26
I8
sI27
I11
ssI30
(dp31
I1
I2
sI36
I4
sI33
I3
sI41
I5
sI43
I6
sI44
I7
sI18
I8
sI26
I9
sI27
I11
sI58
I10
ssI31
(dp32
I34
I2
sI37
I3
sI6
I4
sI42
I5
sI43
I6
sI12
I7
sI45
I8
sI14
I9
sI15
I10
sI10
I11
ssI32
(dp33
I35
I2
sI5
I3
sI7
I4
sI8
I5
sI12
I6
sI16
I7
sI49
I8
sI53
I9
sI24
I10
sI21
I11
ssI33
(dp34
I4
I2
sI38
I3
sI7
I4
sI39
I10
sI45
I5
sI46
I6
sI16
I7
sI14
I11
sI57
I9
sI30
I8
ssI34
(dp35
I36
I7
sI7
I4
sI44
I2
sI39
I3
sI12
I5
sI47
I6
sI22
I8
sI27
I9
sI29
I10
sI31
I11
ssI35
(dp36
I32
I11
sI4
I2
sI7
I4
sI8
I5
sI39
I3
sI17
I6
sI18
I7
sI22
I8
sI23
I9
sI27
I10
ssI36
(dp37
I34
I2
sI4
I3
sI11
I4
sI44
I5
sI14
I6
sI47
I7
sI50
I8
sI21
I9
sI26
I10
sI30
I11
ssI37
(dp38
I4
I2
sI5
I3
sI11
I4
sI16
I5
sI49
I6
sI50
I7
sI20
I8
sI21
I9
sI31
I10
ssI38
(dp39
I33
I2
sI2
I3
sI3
I4
sI6
I5
sI7
I6
sI43
I7
sI16
I8
sI17
I9
sI21
I10
sI39
I11
ssI39
(dp40
I33
I2
sI34
I3
sI35
I4
sI38
I5
sI8
I6
sI11
I7
sI13
I8
sI46
I9
sI47
I10
sI25
I11
ssI40
(dp41
I1
I2
sI8
I3
sI12
I4
sI47
I5
sI18
I6
sI21
I7
sI55
I8
sI24
I9
sI25
I10
sI29
I11
ssI41
(dp42
I4
I2
sI6
I3
sI8
I4
sI9
I5
sI43
I6
sI13
I7
sI15
I8
sI23
I9
sI27
I10
sI30
I11
ssI42
(dp43
I1
I2
sI2
I3
sI6
I4
sI10
I5
sI43
I6
sI45
I7
sI21
I8
sI26
I9
sI28
I10
sI31
I11
ssI43
(dp44
I38
I2
sI41
I4
sI42
I5
sI49
I6
sI50
I3
sI19
I8
sI9
I7
sI24
I9
sI30
I10
sI31
I11
ssI44
(dp45
I1
I2
sI34
I3
sI36
I4
sI6
I5
sI45
I6
sI46
I7
sI15
I8
sI48
I9
sI18
I10
sI30
I11
ssI45
(dp46
I33
I2
sI3
I3
sI44
I7
sI42
I6
sI12
I4
sI48
I8
sI49
I9
sI9
I5
sI27
I10
sI31
I11
ssI46
(dp47
I33
I2
sI4
I3
sI5
I4
sI39
I5
sI9
I6
sI10
I7
sI44
I8
sI13
I9
sI15
I10
sI28
I11
ssI47
(dp48
I34
I2
sI36
I3
sI39
I4
sI40
I5
sI9
I6
sI10
I7
sI11
I8
sI19
I9
sI20
I10
sI25
I11
ssI48
(dp49
I3
I2
sI8
I4
sI12
I3
sI44
I5
sI45
I6
sI15
I7
sI22
I8
sI23
I9
sI25
I10
sI28
I11
ssI49
(dp50
I32
I11
sI2
I2
sI43
I10
sI37
I3
sI11
I5
sI50
I4
sI45
I6
sI18
I7
sI19
I8
sI22
I9
ssI50
(dp51
I1
I2
sI36
I3
sI37
I4
sI10
I5
sI43
I6
sI16
I7
sI49
I8
sI18
I9
sI21
I10
ssI51
(dp52
I17
I1
ssI52
(dp53
I18
I1
ssI53
(dp54
I32
I1
ssI54
(dp55
I13
I1
ssI55
(dp56
I40
I1
ssI56
(dp57
I10
I1
ssI57
(dp58
I33
I1
ssI58
(dp59
I30
I1
ssI59
(dp60
I4
I1
ssI60
(dp61
I20
I1
ss.