(dp1
I1
I01
sI2
I01
sI3
I01
sI4
I01
sI5
I01
sI6
I01
sI7
I01
sI8
I01
sI9
I01
sI10
I01
sI11
I01
sI12
I01
sI13
I01
sI14
I01
sI15
I01
sI16
I01
sI17
I01
sI18
I01
sI19
I01
sI20
I01
sI21
I01
sI22
I01
sI23
I01
sI24
I01
sI25
I01
sI26
I01
sI27
I01
sI28
I01
sI29
I01
sI30
I01
sI31
I01
sI32
I01
sI33
I01
sI34
I01
sI35
I01
sI36
I01
sI37
I01
sI38
I01
sI39
I01
sI40
I01
sI41
I01
sI42
I01
sI43
I01
sI44
I01
sI45
I01
sI46
I01
sI47
I01
sI48
I01
sI49
I01
sI50
I01
sI51
I00
sI52
I00
sI53
I00
sI54
I00
sI55
I00
sI56
I00
sI57
I00
sI58
I00
sI59
I00
sI60
I00
s.